target datalayout = "e-m:e-p270:32:32-p271:32:32-p272:64:64-i64:64-i128:128-f80:128-n8:16:32:64-S128"
target triple = "x86_64-pc-linux-gnu"

%"class.rocksdb::Status" = type { i8, i8, i8, i8, i8, i8, %"class.std::unique_ptr" }
%"class.std::unique_ptr" = type { %"struct.std::__uniq_ptr_data" }
%"struct.std::__uniq_ptr_data" = type { %"class.std::__uniq_ptr_impl" }
%"class.std::__uniq_ptr_impl" = type { %"class.std::tuple" }
%"class.std::tuple" = type { %"struct.std::_Tuple_impl" }
%"struct.std::_Tuple_impl" = type { %"struct.std::_Head_base.4" }
%"struct.std::_Head_base.4" = type { ptr }
%"struct.rocksdb::FlushOptions" = type { i8, i8 }

; Function Attrs: mustprogress nounwind uwtable
define linkonce_odr void @_ZN7rocksdb12FlushOptionsC2Ev(ptr noundef nonnull align 1 dereferenceable(2) %0) unnamed_addr #3 comdat align 2 {
  %2 = alloca ptr, align 8
  store ptr %0, ptr %2, align 8, !tbaa !50
  %3 = load ptr, ptr %2, align 8
  %4 = getelementptr inbounds nuw %"struct.rocksdb::FlushOptions", ptr %3, i32 0, i32 0
  store i8 1, ptr %4, align 1, !tbaa !52
  %5 = getelementptr inbounds nuw %"struct.rocksdb::FlushOptions", ptr %3, i32 0, i32 1
  store i8 0, ptr %5, align 1, !tbaa !55
  ret void
}

; Function Attrs: mustprogress uwtable
define void @_ZN7rocksdb6DBImpl20FlushForGetLiveFilesEv(ptr dead_on_unwind noalias writable sret(%"class.rocksdb::Status") align 8 %0, ptr noundef nonnull align 64 dereferenceable(6868) %1) unnamed_addr #5 align 2 {
  %3 = alloca ptr, align 8
  %4 = alloca ptr, align 8
  %5 = alloca %"struct.rocksdb::FlushOptions", align 1
  store ptr %0, ptr %3, align 8
  store ptr %1, ptr %4, align 8, !tbaa !48
  %6 = load ptr, ptr %4, align 8
  call void @llvm.lifetime.start.p0(i64 2, ptr %5) #4
  call void @_ZN7rocksdb12FlushOptionsC2Ev(ptr noundef nonnull align 1 dereferenceable(2) %5)
  call void @_ZN7rocksdb6DBImpl22FlushAllColumnFamiliesERKNS_12FlushOptionsENS_11FlushReasonE(ptr dead_on_unwind writable sret(%"class.rocksdb::Status") align 8 %0, ptr noundef nonnull align 64 dereferenceable(6868) %6, ptr noundef nonnull align 1 dereferenceable(2) %5, i32 noundef 1)
  call void @llvm.lifetime.end.p0(i64 2, ptr %5) #4
  ret void
}