; Function Attrs: mustprogress uwtable
define void @_ZN7rocksdb6DBImpl20FlushForGetLiveFilesEv(ptr dead_on_unwind noalias writable sret(%"class.rocksdb::Status") align 8 %0, ptr noundef nonnull align 64 dereferenceable(6868) %1) unnamed_addr #4 align 2 {
  %3 = alloca %"struct.rocksdb::FlushOptions", align 1
  call void @llvm.lifetime.start.p0(i64 2, ptr nonnull %3) #20
  store i8 1, ptr %3, align 1, !tbaa !18
  %4 = getelementptr inbounds nuw i8, ptr %3, i64 1
  store i8 0, ptr %4, align 1, !tbaa !21
  call void @_ZN7rocksdb6DBImpl22FlushAllColumnFamiliesERKNS_12FlushOptionsENS_11FlushReasonE(ptr dead_on_unwind writable sret(%"class.rocksdb::Status") align 8 %0, ptr noundef nonnull align 64 dereferenceable(6868) %1, ptr noundef nonnull align 1 dereferenceable(2) %3, i32 noundef 1)
  call void @llvm.lifetime.end.p0(i64 2, ptr nonnull %3) #20
  ret void
}